; ModuleID = '20/1112.c'
source_filename = "20/1112.c"
target datalayout = "e-m:e-p270:32:32-p271:32:32-p272:64:64-i64:64-f80:128-n8:16:32:64-S128"
target triple = "x86_64-pc-linux-gnu"

@str = common dso_local global [10 x i8] zeroinitializer, align 1
@.str = private unnamed_addr constant [6 x i8] c"%s %s\00", align 1
@substr = common dso_local global [3 x i8] zeroinitializer, align 1
@.str.1 = private unnamed_addr constant [3 x i8] c"%c\00", align 1
@.str.2 = private unnamed_addr constant [2 x i8] c"\0A\00", align 1

; Function Attrs: noinline nounwind uwtable
define dso_local i32 @pan() #0 {
  %1 = alloca i32, align 4
  %2 = alloca i32, align 4
  %3 = alloca i32, align 4
  %4 = alloca i32, align 4
  %5 = call i64 @strlen(i8* getelementptr inbounds ([10 x i8], [10 x i8]* @str, i64 0, i64 0)) #3
  %6 = sub i64 %5, 1
  %7 = trunc i64 %6 to i32
  store i32 %7, i32* %4, align 4
  store i32 0, i32* %2, align 4
  br label %8

8:                                                ; preds = %42, %0
  %9 = load i32, i32* %2, align 4
  %10 = sext i32 %9 to i64
  %11 = call i64 @strlen(i8* getelementptr inbounds ([10 x i8], [10 x i8]* @str, i64 0, i64 0)) #3
  %12 = icmp ult i64 %10, %11
  br i1 %12, label %13, label %45

13:                                               ; preds = %8
  store i32 0, i32* %3, align 4
  store i32 0, i32* %1, align 4
  br label %14

14:                                               ; preds = %33, %13
  %15 = load i32, i32* %1, align 4
  %16 = sext i32 %15 to i64
  %17 = call i64 @strlen(i8* getelementptr inbounds ([10 x i8], [10 x i8]* @str, i64 0, i64 0)) #3
  %18 = icmp ult i64 %16, %17
  br i1 %18, label %19, label %36

19:                                               ; preds = %14
  %20 = load i32, i32* %2, align 4
  %21 = sext i32 %20 to i64
  %22 = getelementptr inbounds [10 x i8], [10 x i8]* @str, i64 0, i64 %21
  %23 = load i8, i8* %22, align 1
  %24 = sext i8 %23 to i32
  %25 = load i32, i32* %1, align 4
  %26 = sext i32 %25 to i64
  %27 = getelementptr inbounds [10 x i8], [10 x i8]* @str, i64 0, i64 %26
  %28 = load i8, i8* %27, align 1
  %29 = sext i8 %28 to i32
  %30 = icmp slt i32 %24, %29
  br i1 %30, label %31, label %32

31:                                               ; preds = %19
  store i32 0, i32* %3, align 4
  br label %36

32:                                               ; preds = %19
  store i32 1, i32* %3, align 4
  br label %33

33:                                               ; preds = %32
  %34 = load i32, i32* %1, align 4
  %35 = add nsw i32 %34, 1
  store i32 %35, i32* %1, align 4
  br label %14

36:                                               ; preds = %31, %14
  %37 = load i32, i32* %3, align 4
  %38 = icmp eq i32 %37, 1
  br i1 %38, label %39, label %41

39:                                               ; preds = %36
  %40 = load i32, i32* %2, align 4
  store i32 %40, i32* %4, align 4
  br label %45

41:                                               ; preds = %36
  br label %42

42:                                               ; preds = %41
  %43 = load i32, i32* %2, align 4
  %44 = add nsw i32 %43, 1
  store i32 %44, i32* %2, align 4
  br label %8

45:                                               ; preds = %39, %8
  %46 = load i32, i32* %4, align 4
  ret i32 %46
}

; Function Attrs: nounwind readonly
declare dso_local i64 @strlen(i8*) #1

; Function Attrs: noinline nounwind uwtable
define dso_local i32 @main() #0 {
  %1 = alloca i32, align 4
  %2 = alloca i32, align 4
  store i32 0, i32* %1, align 4
  br label %3

3:                                                ; preds = %53, %0
  %4 = call i32 (i8*, ...) @__isoc99_scanf(i8* getelementptr inbounds ([6 x i8], [6 x i8]* @.str, i64 0, i64 0), i8* getelementptr inbounds ([10 x i8], [10 x i8]* @str, i64 0, i64 0), i8* getelementptr inbounds ([3 x i8], [3 x i8]* @substr, i64 0, i64 0))
  %5 = icmp ne i32 %4, -1
  br i1 %5, label %6, label %55

6:                                                ; preds = %3
  store i32 0, i32* %2, align 4
  br label %7

7:                                                ; preds = %18, %6
  %8 = load i32, i32* %2, align 4
  %9 = call i32 @pan()
  %10 = icmp sle i32 %8, %9
  br i1 %10, label %11, label %21

11:                                               ; preds = %7
  %12 = load i32, i32* %2, align 4
  %13 = sext i32 %12 to i64
  %14 = getelementptr inbounds [10 x i8], [10 x i8]* @str, i64 0, i64 %13
  %15 = load i8, i8* %14, align 1
  %16 = sext i8 %15 to i32
  %17 = call i32 (i8*, ...) @printf(i8* getelementptr inbounds ([3 x i8], [3 x i8]* @.str.1, i64 0, i64 0), i32 %16)
  br label %18

18:                                               ; preds = %11
  %19 = load i32, i32* %2, align 4
  %20 = add nsw i32 %19, 1
  store i32 %20, i32* %2, align 4
  br label %7

21:                                               ; preds = %7
  store i32 0, i32* %2, align 4
  br label %22

22:                                               ; preds = %32, %21
  %23 = load i32, i32* %2, align 4
  %24 = icmp slt i32 %23, 3
  br i1 %24, label %25, label %35

25:                                               ; preds = %22
  %26 = load i32, i32* %2, align 4
  %27 = sext i32 %26 to i64
  %28 = getelementptr inbounds [3 x i8], [3 x i8]* @substr, i64 0, i64 %27
  %29 = load i8, i8* %28, align 1
  %30 = sext i8 %29 to i32
  %31 = call i32 (i8*, ...) @printf(i8* getelementptr inbounds ([3 x i8], [3 x i8]* @.str.1, i64 0, i64 0), i32 %30)
  br label %32

32:                                               ; preds = %25
  %33 = load i32, i32* %2, align 4
  %34 = add nsw i32 %33, 1
  store i32 %34, i32* %2, align 4
  br label %22

35:                                               ; preds = %22
  %36 = call i32 @pan()
  %37 = add nsw i32 %36, 1
  store i32 %37, i32* %2, align 4
  br label %38

38:                                               ; preds = %50, %35
  %39 = load i32, i32* %2, align 4
  %40 = sext i32 %39 to i64
  %41 = call i64 @strlen(i8* getelementptr inbounds ([10 x i8], [10 x i8]* @str, i64 0, i64 0)) #3
  %42 = icmp ult i64 %40, %41
  br i1 %42, label %43, label %53

43:                                               ; preds = %38
  %44 = load i32, i32* %2, align 4
  %45 = sext i32 %44 to i64
  %46 = getelementptr inbounds [10 x i8], [10 x i8]* @str, i64 0, i64 %45
  %47 = load i8, i8* %46, align 1
  %48 = sext i8 %47 to i32
  %49 = call i32 (i8*, ...) @printf(i8* getelementptr inbounds ([3 x i8], [3 x i8]* @.str.1, i64 0, i64 0), i32 %48)
  br label %50

50:                                               ; preds = %43
  %51 = load i32, i32* %2, align 4
  %52 = add nsw i32 %51, 1
  store i32 %52, i32* %2, align 4
  br label %38

53:                                               ; preds = %38
  %54 = call i32 (i8*, ...) @printf(i8* getelementptr inbounds ([2 x i8], [2 x i8]* @.str.2, i64 0, i64 0))
  br label %3

55:                                               ; preds = %3
  ret i32 0
}

declare dso_local i32 @__isoc99_scanf(i8*, ...) #2

declare dso_local i32 @printf(i8*, ...) #2


!llvm.module.flags = !{!0}
!llvm.ident = !{!1}

!0 = !{i32 1, !"wchar_size", i32 4}
!1 = !{!"clang version 10.0.0-4ubuntu1 "}
